target datalayout = "e-m:e-p270:32:32-p271:32:32-p272:64:64-i64:64-i128:128-f80:128-n8:16:32:64-S128"
target triple = "x86_64-pc-linux-gnu"

%struct.job_record = type { i32, ptr, ptr, ptr, ptr, i16, i32, i32, i32, ptr, i32, ptr, ptr, i16, ptr, double, i64, ptr, ptr, ptr, ptr, ptr, ptr, i32, ptr, i32, i64, i64, i32, i32, ptr, i16, i64, i64, i8, i32, ptr, ptr, ptr, ptr, ptr, ptr, ptr, ptr, i32, ptr, ptr, i32, ptr, i32, ptr, i32, ptr, i32, ptr, ptr, ptr, ptr, ptr, ptr, i32, i16, i64, ptr, ptr, ptr, ptr, %struct.acct_policy_limit_set_t, i16, ptr, ptr, ptr, ptr, ptr, i32, ptr, ptr, ptr, ptr, ptr, i32, i32, ptr, ptr, ptr, i16, ptr, ptr, i8, ptr, ptr, i64, i64, i8, i32, i32, i8, i32, ptr, i32, i64, i32, ptr, ptr, ptr, i8, i16, i64, i32, ptr, ptr, ptr, ptr, ptr, i16, i32, ptr, ptr, ptr, ptr, i32, ptr, i32, i16, i64, ptr, i32, i32, ptr, i64, ptr, ptr, i64, i32, i32, i64, i32, i32, ptr, ptr, ptr, ptr, ptr, ptr, ptr, ptr, ptr, ptr, ptr, ptr, i32, ptr, i16, i16, i16, i16, ptr, i32, i32, i8, i64 }
%struct.acct_policy_limit_set_t = type { i16, i16, ptr }
%struct.job_details_t = type { i32, ptr, i64, ptr, i32, ptr, i64, ptr, i16, i16, ptr, i16, i32, i32, i32, i16, ptr, i16, ptr, ptr, ptr, i16, ptr, ptr, ptr, ptr, i32, ptr, ptr, ptr, ptr, ptr, i32, i32, i32, ptr, ptr, i16, i32, i32, i32, i32, i32, i32, i16, i16, i32, i8, i8, i32, i32, i64, i64, i16, i32, ptr, ptr, i8, ptr, i32, ptr, i64, ptr, ptr, i16, i16, i16, i8, ptr, ptr, ptr, ptr, ptr, ptr, i64, i32, i32, i8, ptr, i16, ptr, ptr, i16 }
%struct.job_resources = type { ptr, ptr, i32, ptr, ptr, ptr, ptr, ptr, i16, ptr, ptr, i32, i32, ptr, i32, ptr, i32, ptr, ptr, ptr, i16, i8 }

; Function Attrs: nounwind uwtable
define internal i32 @_bit_or_cond_internal(ptr noundef %0, ptr noundef %1) #0 {
  %3 = alloca i32, align 4
  %4 = alloca ptr, align 8
  %5 = alloca ptr, align 8
  %6 = alloca ptr, align 8
  %7 = alloca ptr, align 8
  %8 = alloca i32, align 4
  store ptr %0, ptr %4, align 8
  store ptr %1, ptr %5, align 8
  call void @llvm.lifetime.start.p0(i64 8, ptr %6) #8
  %9 = load ptr, ptr %4, align 8
  store ptr %9, ptr %6, align 8
  call void @llvm.lifetime.start.p0(i64 8, ptr %7) #8
  %10 = load ptr, ptr %5, align 8
  store ptr %10, ptr %7, align 8
  %11 = load ptr, ptr %6, align 8
  %12 = getelementptr inbounds nuw %struct.job_record, ptr %11, i32 0, i32 60
  %13 = load i32, ptr %12, align 8
  %14 = and i32 %13, 255
  %15 = icmp eq i32 %14, 1
  br i1 %15, label %16, label %29

16:                                               ; preds = %2
  %17 = load ptr, ptr %6, align 8
  %18 = getelementptr inbounds nuw %struct.job_record, ptr %17, i32 0, i32 30
  %19 = load ptr, ptr %18, align 8
  %20 = getelementptr inbounds nuw %struct.job_details_t, ptr %19, i32 0, i32 67
  %21 = load i8, ptr %20, align 2
  %22 = zext i8 %21 to i32
  %23 = icmp ne i32 %22, 0
  br i1 %23, label %29, label %24

24:                                               ; preds = %16
  %25 = load ptr, ptr %6, align 8
  %26 = getelementptr inbounds nuw %struct.job_record, ptr %25, i32 0, i32 59
  %27 = load ptr, ptr %26, align 8
  %28 = icmp ne ptr %27, null
  br i1 %28, label %30, label %29

29:                                               ; preds = %24, %16, %2
  store i32 0, ptr %3, align 4
  store i32 1, ptr %8, align 4
  br label %37

30:                                               ; preds = %24
  %31 = load ptr, ptr %7, align 8
  %32 = load ptr, ptr %6, align 8
  %33 = getelementptr inbounds nuw %struct.job_record, ptr %32, i32 0, i32 59
  %34 = load ptr, ptr %33, align 8
  %35 = getelementptr inbounds nuw %struct.job_resources, ptr %34, i32 0, i32 13
  %36 = load ptr, ptr %35, align 8
  call void @bit_or(ptr noundef %31, ptr noundef %36)
  store i32 0, ptr %3, align 4
  store i32 1, ptr %8, align 4
  br label %37

37:                                               ; preds = %30, %29
  call void @llvm.lifetime.end.p0(i64 8, ptr %7) #8
  call void @llvm.lifetime.end.p0(i64 8, ptr %6) #8
  %38 = load i32, ptr %3, align 4
  ret i32 %38
}