; Function Attrs: nounwind uwtable
define internal noundef i32 @_bit_or_cond_internal(ptr noundef readonly captures(none) %0, ptr noundef %1) #0 {
  %3 = getelementptr inbounds nuw i8, ptr %0, i64 448
  %4 = load i32, ptr %3, align 8
  %5 = and i32 %4, 255
  %6 = icmp eq i32 %5, 1
  br i1 %6, label %7, label %18

7:                                                ; preds = %2
  %8 = getelementptr inbounds nuw i8, ptr %0, i64 216
  %9 = load ptr, ptr %8, align 8
  %10 = getelementptr inbounds nuw i8, ptr %9, i64 414
  %11 = load i8, ptr %10, align 2
  %.not = icmp eq i8 %11, 0
  br i1 %.not, label %12, label %18

12:                                               ; preds = %7
  %13 = getelementptr inbounds nuw i8, ptr %0, i64 440
  %14 = load ptr, ptr %13, align 8
  %.not7 = icmp eq ptr %14, null
  br i1 %.not7, label %18, label %15

15:                                               ; preds = %12
  %16 = getelementptr inbounds nuw i8, ptr %14, i64 96
  %17 = load ptr, ptr %16, align 8
  tail call void @bit_or(ptr noundef %1, ptr noundef %17) #14
  br label %18

18:                                               ; preds = %2, %7, %12, %15
  ret i32 0
}